target datalayout = "e-m:e-p270:32:32-p271:32:32-p272:64:64-i64:64-i128:128-f80:128-n8:16:32:64-S128"
target triple = "x86_64-pc-linux-gnu"

%struct.JNINativeInterface_ = type { ptr, ptr, ptr, ptr, ptr, ptr, ptr, ptr, ptr, ptr, ptr, ptr, ptr, ptr, ptr, ptr, ptr, ptr, ptr, ptr, ptr, ptr, ptr, ptr, ptr, ptr, ptr, ptr, ptr, ptr, ptr, ptr, ptr, ptr, ptr, ptr, ptr, ptr, ptr, ptr, ptr, ptr, ptr, ptr, ptr, ptr, ptr, ptr, ptr, ptr, ptr, ptr, ptr, ptr, ptr, ptr, ptr, ptr, ptr, ptr, ptr, ptr, ptr, ptr, ptr, ptr, ptr, ptr, ptr, ptr, ptr, ptr, ptr, ptr, ptr, ptr, ptr, ptr, ptr, ptr, ptr, ptr, ptr, ptr, ptr, ptr, ptr, ptr, ptr, ptr, ptr, ptr, ptr, ptr, ptr, ptr, ptr, ptr, ptr, ptr, ptr, ptr, ptr, ptr, ptr, ptr, ptr, ptr, ptr, ptr, ptr, ptr, ptr, ptr, ptr, ptr, ptr, ptr, ptr, ptr, ptr, ptr, ptr, ptr, ptr, ptr, ptr, ptr, ptr, ptr, ptr, ptr, ptr, ptr, ptr, ptr, ptr, ptr, ptr, ptr, ptr, ptr, ptr, ptr, ptr, ptr, ptr, ptr, ptr, ptr, ptr, ptr, ptr, ptr, ptr, ptr, ptr, ptr, ptr, ptr, ptr, ptr, ptr, ptr, ptr, ptr, ptr, ptr, ptr, ptr, ptr, ptr, ptr, ptr, ptr, ptr, ptr, ptr, ptr, ptr, ptr, ptr, ptr, ptr, ptr, ptr, ptr, ptr, ptr, ptr, ptr, ptr, ptr, ptr, ptr, ptr, ptr, ptr, ptr, ptr, ptr, ptr, ptr, ptr, ptr, ptr, ptr, ptr, ptr, ptr, ptr, ptr, ptr, ptr, ptr, ptr, ptr, ptr, ptr, ptr, ptr, ptr, ptr, ptr, ptr, ptr, ptr, ptr, ptr, ptr, ptr, ptr, ptr, ptr, ptr }
%struct.CK_TLS_MAC_PARAMS = type { i64, i64, i64 }

@.str.17 = private unnamed_addr constant [2 x i8] c"J\00", align 1
@.str.35 = private unnamed_addr constant [46 x i8] c"sun/security/pkcs11/wrapper/CK_TLS_MAC_PARAMS\00", align 1
@.str.36 = private unnamed_addr constant [13 x i8] c"prfMechanism\00", align 1
@.str.37 = private unnamed_addr constant [12 x i8] c"ulMacLength\00", align 1
@.str.38 = private unnamed_addr constant [17 x i8] c"ulServerOrClient\00", align 1

; Function Attrs: nounwind uwtable
define hidden ptr @jTlsMacParamsToCKTlsMacParamPtr(ptr noundef %0, ptr noundef %1, ptr noundef %2) #0 {
  %4 = alloca ptr, align 8
  %5 = alloca ptr, align 8
  %6 = alloca ptr, align 8
  %7 = alloca ptr, align 8
  %8 = alloca ptr, align 8
  %9 = alloca ptr, align 8
  %10 = alloca ptr, align 8
  %11 = alloca i64, align 8
  %12 = alloca i64, align 8
  %13 = alloca i64, align 8
  store ptr %0, ptr %5, align 8
  store ptr %1, ptr %6, align 8
  store ptr %2, ptr %7, align 8
  %14 = load ptr, ptr %7, align 8
  %15 = icmp ne ptr %14, null
  br i1 %15, label %16, label %18

16:                                               ; preds = %3
  %17 = load ptr, ptr %7, align 8
  store i64 0, ptr %17, align 8
  br label %18

18:                                               ; preds = %16, %3
  %19 = load ptr, ptr %5, align 8
  %20 = load ptr, ptr %19, align 8
  %21 = getelementptr inbounds %struct.JNINativeInterface_, ptr %20, i32 0, i32 6
  %22 = load ptr, ptr %21, align 8
  %23 = load ptr, ptr %5, align 8
  %24 = call ptr %22(ptr noundef %23, ptr noundef @.str.35)
  store ptr %24, ptr %9, align 8
  %25 = load ptr, ptr %9, align 8
  %26 = icmp eq ptr %25, null
  br i1 %26, label %27, label %28

27:                                               ; preds = %18
  store ptr null, ptr %4, align 8
  br label %107

28:                                               ; preds = %18
  %29 = load ptr, ptr %5, align 8
  %30 = load ptr, ptr %29, align 8
  %31 = getelementptr inbounds %struct.JNINativeInterface_, ptr %30, i32 0, i32 94
  %32 = load ptr, ptr %31, align 8
  %33 = load ptr, ptr %5, align 8
  %34 = load ptr, ptr %9, align 8
  %35 = call ptr %32(ptr noundef %33, ptr noundef %34, ptr noundef @.str.36, ptr noundef @.str.17)
  store ptr %35, ptr %10, align 8
  %36 = load ptr, ptr %10, align 8
  %37 = icmp eq ptr %36, null
  br i1 %37, label %38, label %39

38:                                               ; preds = %28
  store ptr null, ptr %4, align 8
  br label %107

39:                                               ; preds = %28
  %40 = load ptr, ptr %5, align 8
  %41 = load ptr, ptr %40, align 8
  %42 = getelementptr inbounds %struct.JNINativeInterface_, ptr %41, i32 0, i32 101
  %43 = load ptr, ptr %42, align 8
  %44 = load ptr, ptr %5, align 8
  %45 = load ptr, ptr %6, align 8
  %46 = load ptr, ptr %10, align 8
  %47 = call i64 %43(ptr noundef %44, ptr noundef %45, ptr noundef %46)
  store i64 %47, ptr %11, align 8
  %48 = load ptr, ptr %5, align 8
  %49 = load ptr, ptr %48, align 8
  %50 = getelementptr inbounds %struct.JNINativeInterface_, ptr %49, i32 0, i32 94
  %51 = load ptr, ptr %50, align 8
  %52 = load ptr, ptr %5, align 8
  %53 = load ptr, ptr %9, align 8
  %54 = call ptr %51(ptr noundef %52, ptr noundef %53, ptr noundef @.str.37, ptr noundef @.str.17)
  store ptr %54, ptr %10, align 8
  %55 = load ptr, ptr %10, align 8
  %56 = icmp eq ptr %55, null
  br i1 %56, label %57, label %58

57:                                               ; preds = %39
  store ptr null, ptr %4, align 8
  br label %107

58:                                               ; preds = %39
  %59 = load ptr, ptr %5, align 8
  %60 = load ptr, ptr %59, align 8
  %61 = getelementptr inbounds %struct.JNINativeInterface_, ptr %60, i32 0, i32 101
  %62 = load ptr, ptr %61, align 8
  %63 = load ptr, ptr %5, align 8
  %64 = load ptr, ptr %6, align 8
  %65 = load ptr, ptr %10, align 8
  %66 = call i64 %62(ptr noundef %63, ptr noundef %64, ptr noundef %65)
  store i64 %66, ptr %12, align 8
  %67 = load ptr, ptr %5, align 8
  %68 = load ptr, ptr %67, align 8
  %69 = getelementptr inbounds %struct.JNINativeInterface_, ptr %68, i32 0, i32 94
  %70 = load ptr, ptr %69, align 8
  %71 = load ptr, ptr %5, align 8
  %72 = load ptr, ptr %9, align 8
  %73 = call ptr %70(ptr noundef %71, ptr noundef %72, ptr noundef @.str.38, ptr noundef @.str.17)
  store ptr %73, ptr %10, align 8
  %74 = load ptr, ptr %10, align 8
  %75 = icmp eq ptr %74, null
  br i1 %75, label %76, label %77

76:                                               ; preds = %58
  store ptr null, ptr %4, align 8
  br label %107

77:                                               ; preds = %58
  %78 = load ptr, ptr %5, align 8
  %79 = load ptr, ptr %78, align 8
  %80 = getelementptr inbounds %struct.JNINativeInterface_, ptr %79, i32 0, i32 101
  %81 = load ptr, ptr %80, align 8
  %82 = load ptr, ptr %5, align 8
  %83 = load ptr, ptr %6, align 8
  %84 = load ptr, ptr %10, align 8
  %85 = call i64 %81(ptr noundef %82, ptr noundef %83, ptr noundef %84)
  store i64 %85, ptr %13, align 8
  %86 = call noalias ptr @calloc(i64 noundef 1, i64 noundef 24) #6
  store ptr %86, ptr %8, align 8
  %87 = load ptr, ptr %8, align 8
  %88 = icmp eq ptr %87, null
  br i1 %88, label %89, label %91

89:                                               ; preds = %77
  %90 = load ptr, ptr %5, align 8
  call void @p11ThrowOutOfMemoryError(ptr noundef %90, ptr noundef null)
  store ptr null, ptr %4, align 8
  br label %107

91:                                               ; preds = %77
  %92 = load i64, ptr %11, align 8
  %93 = load ptr, ptr %8, align 8
  %94 = getelementptr inbounds %struct.CK_TLS_MAC_PARAMS, ptr %93, i32 0, i32 0
  store i64 %92, ptr %94, align 8
  %95 = load i64, ptr %12, align 8
  %96 = load ptr, ptr %8, align 8
  %97 = getelementptr inbounds %struct.CK_TLS_MAC_PARAMS, ptr %96, i32 0, i32 1
  store i64 %95, ptr %97, align 8
  %98 = load i64, ptr %13, align 8
  %99 = load ptr, ptr %8, align 8
  %100 = getelementptr inbounds %struct.CK_TLS_MAC_PARAMS, ptr %99, i32 0, i32 2
  store i64 %98, ptr %100, align 8
  %101 = load ptr, ptr %7, align 8
  %102 = icmp ne ptr %101, null
  br i1 %102, label %103, label %105

103:                                              ; preds = %91
  %104 = load ptr, ptr %7, align 8
  store i64 24, ptr %104, align 8
  br label %105

105:                                              ; preds = %103, %91
  %106 = load ptr, ptr %8, align 8
  store ptr %106, ptr %4, align 8
  br label %107

107:                                              ; preds = %105, %89, %76, %57, %38, %27
  %108 = load ptr, ptr %4, align 8
  ret ptr %108
}