; Function Attrs: nounwind uwtable
define hidden noundef ptr @jTlsMacParamsToCKTlsMacParamPtr(ptr noundef %0, ptr noundef %1, ptr noundef writeonly %2) local_unnamed_addr #0 {
  %.not = icmp eq ptr %2, null
  br i1 %.not, label %5, label %4

4:                                                ; preds = %3
  store i64 0, ptr %2, align 8
  br label %5

5:                                                ; preds = %4, %3
  %6 = load ptr, ptr %0, align 8
  %7 = getelementptr inbounds i8, ptr %6, i64 48
  %8 = load ptr, ptr %7, align 8
  %9 = tail call ptr %8(ptr noundef nonnull %0, ptr noundef nonnull @.str.35) #8
  %10 = icmp eq ptr %9, null
  br i1 %10, label %49, label %11

11:                                               ; preds = %5
  %12 = load ptr, ptr %0, align 8
  %13 = getelementptr inbounds i8, ptr %12, i64 752
  %14 = load ptr, ptr %13, align 8
  %15 = tail call ptr %14(ptr noundef nonnull %0, ptr noundef nonnull %9, ptr noundef nonnull @.str.36, ptr noundef nonnull @.str.17) #8
  %16 = icmp eq ptr %15, null
  br i1 %16, label %49, label %17

17:                                               ; preds = %11
  %18 = load ptr, ptr %0, align 8
  %19 = getelementptr inbounds i8, ptr %18, i64 808
  %20 = load ptr, ptr %19, align 8
  %21 = tail call i64 %20(ptr noundef nonnull %0, ptr noundef %1, ptr noundef nonnull %15) #8
  %22 = load ptr, ptr %0, align 8
  %23 = getelementptr inbounds i8, ptr %22, i64 752
  %24 = load ptr, ptr %23, align 8
  %25 = tail call ptr %24(ptr noundef nonnull %0, ptr noundef nonnull %9, ptr noundef nonnull @.str.37, ptr noundef nonnull @.str.17) #8
  %26 = icmp eq ptr %25, null
  br i1 %26, label %49, label %27

27:                                               ; preds = %17
  %28 = load ptr, ptr %0, align 8
  %29 = getelementptr inbounds i8, ptr %28, i64 808
  %30 = load ptr, ptr %29, align 8
  %31 = tail call i64 %30(ptr noundef nonnull %0, ptr noundef %1, ptr noundef nonnull %25) #8
  %32 = load ptr, ptr %0, align 8
  %33 = getelementptr inbounds i8, ptr %32, i64 752
  %34 = load ptr, ptr %33, align 8
  %35 = tail call ptr %34(ptr noundef nonnull %0, ptr noundef nonnull %9, ptr noundef nonnull @.str.38, ptr noundef nonnull @.str.17) #8
  %36 = icmp eq ptr %35, null
  br i1 %36, label %49, label %37

37:                                               ; preds = %27
  %38 = load ptr, ptr %0, align 8
  %39 = getelementptr inbounds i8, ptr %38, i64 808
  %40 = load ptr, ptr %39, align 8
  %41 = tail call i64 %40(ptr noundef nonnull %0, ptr noundef %1, ptr noundef nonnull %35) #8
  %42 = tail call noalias dereferenceable_or_null(24) ptr @calloc(i64 noundef 1, i64 noundef 24) #9
  %43 = icmp eq ptr %42, null
  br i1 %43, label %44, label %45

44:                                               ; preds = %37
  tail call void @p11ThrowOutOfMemoryError(ptr noundef nonnull %0, ptr noundef null) #8
  br label %49

45:                                               ; preds = %37
  store i64 %21, ptr %42, align 8
  %46 = getelementptr inbounds i8, ptr %42, i64 8
  store i64 %31, ptr %46, align 8
  %47 = getelementptr inbounds i8, ptr %42, i64 16
  store i64 %41, ptr %47, align 8
  br i1 %.not, label %49, label %48

48:                                               ; preds = %45
  store i64 24, ptr %2, align 8
  br label %49

49:                                               ; preds = %45, %48, %27, %17, %11, %5, %44
  %.0 = phi ptr [ null, %44 ], [ null, %5 ], [ null, %11 ], [ null, %17 ], [ null, %27 ], [ %42, %48 ], [ %42, %45 ]
  ret ptr %.0
}